target datalayout = "e-m:e-p270:32:32-p271:32:32-p272:64:64-i64:64-i128:128-f80:128-n8:16:32:64-S128"
target triple = "x86_64-pc-linux-gnu"

@.str = private unnamed_addr constant [36 x i8] c"../openssl/crypto/pkcs7/pk7_smime.c\00", align 1
@__func__.PKCS7_encrypt_ex = private unnamed_addr constant [17 x i8] c"PKCS7_encrypt_ex\00", align 1

; Function Attrs: inlinehint nounwind uwtable
define internal ptr @ossl_check_const_X509_sk_type(ptr noundef %0) #3 {
  %2 = alloca ptr, align 8
  store ptr %0, ptr %2, align 8, !tbaa !10
  %3 = load ptr, ptr %2, align 8, !tbaa !10
  ret ptr %3
}

; Function Attrs: nounwind uwtable
define ptr @PKCS7_encrypt_ex(ptr noundef %0, ptr noundef %1, ptr noundef %2, i32 noundef %3, ptr noundef %4, ptr noundef %5) #0 {
  %7 = alloca ptr, align 8
  %8 = alloca ptr, align 8
  %9 = alloca ptr, align 8
  %10 = alloca ptr, align 8
  %11 = alloca i32, align 4
  %12 = alloca ptr, align 8
  %13 = alloca ptr, align 8
  %14 = alloca ptr, align 8
  %15 = alloca ptr, align 8
  %16 = alloca i32, align 4
  %17 = alloca ptr, align 8
  %18 = alloca i32, align 4
  store ptr %0, ptr %8, align 8, !tbaa !10
  store ptr %1, ptr %9, align 8, !tbaa !12
  store ptr %2, ptr %10, align 8, !tbaa !73
  store i32 %3, ptr %11, align 4, !tbaa !14
  store ptr %4, ptr %12, align 8, !tbaa !16
  store ptr %5, ptr %13, align 8, !tbaa !18
  call void @llvm.lifetime.start.p0(i64 8, ptr %14) #4
  call void @llvm.lifetime.start.p0(i64 8, ptr %15) #4
  store ptr null, ptr %15, align 8, !tbaa !12
  call void @llvm.lifetime.start.p0(i64 4, ptr %16) #4
  call void @llvm.lifetime.start.p0(i64 8, ptr %17) #4
  %19 = load ptr, ptr %12, align 8, !tbaa !16
  %20 = load ptr, ptr %13, align 8, !tbaa !18
  %21 = call ptr @PKCS7_new_ex(ptr noundef %19, ptr noundef %20)
  store ptr %21, ptr %14, align 8, !tbaa !20
  %22 = icmp eq ptr %21, null
  br i1 %22, label %23, label %24

23:                                               ; preds = %6
  call void @ERR_new()
  call void @ERR_set_debug(ptr noundef @.str, i32 noundef 438, ptr noundef @__func__.PKCS7_encrypt_ex)
  call void (i32, i32, ptr, ...) @ERR_set_error(i32 noundef 33, i32 noundef 524321, ptr noundef null)
  store ptr null, ptr %7, align 8
  store i32 1, ptr %18, align 4
  br label %74

24:                                               ; preds = %6
  %25 = load ptr, ptr %14, align 8, !tbaa !20
  %26 = call i32 @PKCS7_set_type(ptr noundef %25, i32 noundef 23)
  %27 = icmp ne i32 %26, 0
  br i1 %27, label %29, label %28

28:                                               ; preds = %24
  br label %71

29:                                               ; preds = %24
  %30 = load ptr, ptr %14, align 8, !tbaa !20
  %31 = load ptr, ptr %10, align 8, !tbaa !73
  %32 = call i32 @PKCS7_set_cipher(ptr noundef %30, ptr noundef %31)
  %33 = icmp ne i32 %32, 0
  br i1 %33, label %35, label %34

34:                                               ; preds = %29
  call void @ERR_new()
  call void @ERR_set_debug(ptr noundef @.str, i32 noundef 445, ptr noundef @__func__.PKCS7_encrypt_ex)
  call void (i32, i32, ptr, ...) @ERR_set_error(i32 noundef 33, i32 noundef 121, ptr noundef null)
  br label %71

35:                                               ; preds = %29
  store i32 0, ptr %16, align 4, !tbaa !14
  br label %36

36:                                               ; preds = %53, %35
  %37 = load i32, ptr %16, align 4, !tbaa !14
  %38 = load ptr, ptr %8, align 8, !tbaa !10
  %39 = call ptr @ossl_check_const_X509_sk_type(ptr noundef %38)
  %40 = call i32 @OPENSSL_sk_num(ptr noundef %39)
  %41 = icmp slt i32 %37, %40
  br i1 %41, label %42, label %56

42:                                               ; preds = %36
  %43 = load ptr, ptr %8, align 8, !tbaa !10
  %44 = call ptr @ossl_check_const_X509_sk_type(ptr noundef %43)
  %45 = load i32, ptr %16, align 4, !tbaa !14
  %46 = call ptr @OPENSSL_sk_value(ptr noundef %44, i32 noundef %45)
  store ptr %46, ptr %17, align 8, !tbaa !3
  %47 = load ptr, ptr %14, align 8, !tbaa !20
  %48 = load ptr, ptr %17, align 8, !tbaa !3
  %49 = call ptr @PKCS7_add_recipient(ptr noundef %47, ptr noundef %48)
  %50 = icmp ne ptr %49, null
  br i1 %50, label %52, label %51

51:                                               ; preds = %42
  call void @ERR_new()
  call void @ERR_set_debug(ptr noundef @.str, i32 noundef 452, ptr noundef @__func__.PKCS7_encrypt_ex)
  call void (i32, i32, ptr, ...) @ERR_set_error(i32 noundef 33, i32 noundef 120, ptr noundef null)
  br label %71

52:                                               ; preds = %42
  br label %53

53:                                               ; preds = %52
  %54 = load i32, ptr %16, align 4, !tbaa !14
  %55 = add nsw i32 %54, 1
  store i32 %55, ptr %16, align 4, !tbaa !14
  br label %36, !llvm.loop !75

56:                                               ; preds = %36
  %57 = load i32, ptr %11, align 4, !tbaa !14
  %58 = and i32 %57, 4096
  %59 = icmp ne i32 %58, 0
  br i1 %59, label %60, label %62

60:                                               ; preds = %56
  %61 = load ptr, ptr %14, align 8, !tbaa !20
  store ptr %61, ptr %7, align 8
  store i32 1, ptr %18, align 4
  br label %74

62:                                               ; preds = %56
  %63 = load ptr, ptr %14, align 8, !tbaa !20
  %64 = load ptr, ptr %9, align 8, !tbaa !12
  %65 = load i32, ptr %11, align 4, !tbaa !14
  %66 = call i32 @PKCS7_final(ptr noundef %63, ptr noundef %64, i32 noundef %65)
  %67 = icmp ne i32 %66, 0
  br i1 %67, label %68, label %70

68:                                               ; preds = %62
  %69 = load ptr, ptr %14, align 8, !tbaa !20
  store ptr %69, ptr %7, align 8
  store i32 1, ptr %18, align 4
  br label %74

70:                                               ; preds = %62
  br label %71

71:                                               ; preds = %70, %51, %34, %28
  %72 = load ptr, ptr %15, align 8, !tbaa !12
  call void @BIO_free_all(ptr noundef %72)
  %73 = load ptr, ptr %14, align 8, !tbaa !20
  call void @PKCS7_free(ptr noundef %73)
  store ptr null, ptr %7, align 8
  store i32 1, ptr %18, align 4
  br label %74

74:                                               ; preds = %71, %68, %60, %23
  call void @llvm.lifetime.end.p0(i64 8, ptr %17) #4
  call void @llvm.lifetime.end.p0(i64 4, ptr %16) #4
  call void @llvm.lifetime.end.p0(i64 8, ptr %15) #4
  call void @llvm.lifetime.end.p0(i64 8, ptr %14) #4
  %75 = load ptr, ptr %7, align 8
  ret ptr %75
}