; Function Attrs: nounwind uwtable
define ptr @PKCS7_encrypt_ex(ptr noundef %0, ptr noundef %1, ptr noundef %2, i32 noundef %3, ptr noundef %4, ptr noundef %5) local_unnamed_addr #0 {
  %7 = tail call ptr @PKCS7_new_ex(ptr noundef %4, ptr noundef %5) #3
  %8 = icmp eq ptr %7, null
  br i1 %8, label %9, label %10

9:                                                ; preds = %6
  tail call void @ERR_new() #3
  tail call void @ERR_set_debug(ptr noundef nonnull @.str, i32 noundef 438, ptr noundef nonnull @__func__.PKCS7_encrypt_ex) #3
  tail call void (i32, i32, ptr, ...) @ERR_set_error(i32 noundef 33, i32 noundef 524321, ptr noundef null) #3
  br label %26

10:                                               ; preds = %6
  %11 = tail call i32 @PKCS7_set_type(ptr noundef nonnull %7, i32 noundef 23) #3
  %.not = icmp eq i32 %11, 0
  br i1 %.not, label %25, label %12

12:                                               ; preds = %10
  %13 = tail call i32 @PKCS7_set_cipher(ptr noundef nonnull %7, ptr noundef %2) #3
  %.not22 = icmp eq i32 %13, 0
  br i1 %.not22, label %.sink.split, label %.preheader

.preheader:                                       ; preds = %12
  %14 = tail call i32 @OPENSSL_sk_num(ptr noundef %0) #3
  %15 = icmp sgt i32 %14, 0
  br i1 %15, label %.lr.ph, label %._crit_edge

16:                                               ; preds = %.lr.ph
  %17 = add nuw nsw i32 %.02026, 1
  %18 = tail call i32 @OPENSSL_sk_num(ptr noundef %0) #3
  %19 = icmp slt i32 %17, %18
  br i1 %19, label %.lr.ph, label %._crit_edge, !llvm.loop !50

.lr.ph:                                           ; preds = %.preheader, %16
  %.02026 = phi i32 [ %17, %16 ], [ 0, %.preheader ]
  %20 = tail call ptr @OPENSSL_sk_value(ptr noundef %0, i32 noundef %.02026) #3
  %21 = tail call ptr @PKCS7_add_recipient(ptr noundef nonnull %7, ptr noundef %20) #3
  %.not25 = icmp eq ptr %21, null
  br i1 %.not25, label %.sink.split, label %16

._crit_edge:                                      ; preds = %16, %.preheader
  %22 = and i32 %3, 4096
  %.not23 = icmp eq i32 %22, 0
  br i1 %.not23, label %23, label %26

23:                                               ; preds = %._crit_edge
  %24 = tail call i32 @PKCS7_final(ptr noundef nonnull %7, ptr noundef %1, i32 noundef %3)
  %.not24 = icmp eq i32 %24, 0
  br i1 %.not24, label %25, label %26

.sink.split:                                      ; preds = %.lr.ph, %12
  %.sink27 = phi i32 [ 445, %12 ], [ 452, %.lr.ph ]
  %.sink = phi i32 [ 121, %12 ], [ 120, %.lr.ph ]
  tail call void @ERR_new() #3
  tail call void @ERR_set_debug(ptr noundef nonnull @.str, i32 noundef %.sink27, ptr noundef nonnull @__func__.PKCS7_encrypt_ex) #3
  tail call void (i32, i32, ptr, ...) @ERR_set_error(i32 noundef 33, i32 noundef %.sink, ptr noundef null) #3
  br label %25

25:                                               ; preds = %.sink.split, %23, %10
  tail call void @BIO_free_all(ptr noundef null) #3
  tail call void @PKCS7_free(ptr noundef nonnull %7) #3
  br label %26

26:                                               ; preds = %23, %._crit_edge, %25, %9
  %.0 = phi ptr [ null, %9 ], [ null, %25 ], [ %7, %._crit_edge ], [ %7, %23 ]
  ret ptr %.0
}